; Function Attrs: mustprogress uwtable
define noundef zeroext i1 @_ZN7rocksdb18WritePreparedTxnDB14AddCommitEntryEmRKNS0_11CommitEntryEPS1_(ptr noundef nonnull align 8 dereferenceable(1352) %this, i64 noundef %indexed_seq, ptr nocapture noundef nonnull readonly align 8 dereferenceable(16) %new_entry, ptr nocapture noundef writeonly %evicted_entry) local_unnamed_addr #2 align 2 {
entry:
  %new_entry_64b = alloca %"struct.rocksdb::WritePreparedTxnDB::CommitEntry64b", align 8
  %FORMAT = getelementptr inbounds i8, ptr %this, i64 784
  %0 = load i64, ptr %new_entry, align 8
  %commit_seq.i = getelementptr inbounds i8, ptr %new_entry, i64 8
  %1 = load i64, ptr %commit_seq.i, align 8
  call void @_ZN7rocksdb18WritePreparedTxnDB14CommitEntry64bC2EmmRKNS0_20CommitEntry64bFormatE(ptr noundef nonnull align 8 dereferenceable(8) %new_entry_64b, i64 noundef %0, i64 noundef %1, ptr noundef nonnull align 8 dereferenceable(48) %FORMAT)
  %commit_cache_ = getelementptr inbounds i8, ptr %this, i64 832
  %2 = load ptr, ptr %commit_cache_, align 8
  %arrayidx.i = getelementptr inbounds %"struct.std::atomic.639", ptr %2, i64 %indexed_seq
  %agg.tmp.sroa.0.0.copyload = load i64, ptr %new_entry_64b, align 8
  %3 = atomicrmw xchg ptr %arrayidx.i, i64 %agg.tmp.sroa.0.0.copyload acq_rel, align 8
  %COMMIT_FILTER.i = getelementptr inbounds i8, ptr %this, i64 816
  %4 = load i64, ptr %COMMIT_FILTER.i, align 8
  %and.i = and i64 %4, %3
  %cmp.i = icmp ne i64 %and.i, 0
  br i1 %cmp.i, label %if.end.i, label %_ZN7rocksdb18WritePreparedTxnDB14CommitEntry64b5ParseEmPNS0_11CommitEntryERKNS0_20CommitEntry64bFormatE.exit

if.end.i:                                         ; preds = %entry
  %not.i = xor i64 %4, -1
  %and5.i = and i64 %3, %not.i
  %5 = load i64, ptr %FORMAT, align 8
  %shr.i = lshr i64 %and5.i, %5
  %or.i = or i64 %shr.i, %indexed_seq
  store i64 %or.i, ptr %evicted_entry, align 8
  %add.i = add i64 %and.i, -1
  %sub.i = add i64 %add.i, %or.i
  %commit_seq.i2 = getelementptr inbounds i8, ptr %evicted_entry, i64 8
  store i64 %sub.i, ptr %commit_seq.i2, align 8
  br label %_ZN7rocksdb18WritePreparedTxnDB14CommitEntry64b5ParseEmPNS0_11CommitEntryERKNS0_20CommitEntry64bFormatE.exit

_ZN7rocksdb18WritePreparedTxnDB14CommitEntry64b5ParseEmPNS0_11CommitEntryERKNS0_20CommitEntry64bFormatE.exit: ; preds = %entry, %if.end.i
  ret i1 %cmp.i
}